target datalayout = "e-m:e-p270:32:32-p271:32:32-p272:64:64-i64:64-i128:128-f80:128-n8:16:32:64-S128"
target triple = "x86_64-pc-linux-gnu"

%struct.ASN1_ENCODING_st = type { ptr, i64, i32 }
%struct.X509_algor_st = type { ptr, ptr }
%struct.CRYPTO_REF_COUNT = type { i32 }
%struct.X509_req_st = type { %struct.X509_req_info_st, %struct.X509_algor_st, ptr, %struct.CRYPTO_REF_COUNT, ptr, ptr, ptr, ptr }
%struct.X509_req_info_st = type { %struct.ASN1_ENCODING_st, ptr, ptr, ptr, ptr }

@.str = private unnamed_addr constant [34 x i8] c"../openssl/crypto/x509/x509_req.c\00", align 1
@__func__.X509_REQ_add1_attr_by_NID = private unnamed_addr constant [26 x i8] c"X509_REQ_add1_attr_by_NID\00", align 1

; Function Attrs: inlinehint nounwind uwtable
define internal ptr @ossl_check_X509_EXTENSION_freefunc_type(ptr noundef %0) #3 {
  %2 = alloca ptr, align 8
  store ptr %0, ptr %2, align 8, !tbaa !68
  %3 = load ptr, ptr %2, align 8, !tbaa !68
  ret ptr %3
}

; Function Attrs: inlinehint nounwind uwtable
define internal ptr @ossl_check_X509_EXTENSION_sk_type(ptr noundef %0) #3 {
  %2 = alloca ptr, align 8
  store ptr %0, ptr %2, align 8, !tbaa !57
  %3 = load ptr, ptr %2, align 8, !tbaa !57
  ret ptr %3
}

; Function Attrs: nounwind uwtable
define i32 @X509_REQ_add1_attr_by_NID(ptr noundef %0, i32 noundef %1, i32 noundef %2, ptr noundef %3, i32 noundef %4) #0 {
  %6 = alloca i32, align 4
  %7 = alloca ptr, align 8
  %8 = alloca i32, align 4
  %9 = alloca i32, align 4
  %10 = alloca ptr, align 8
  %11 = alloca i32, align 4
  store ptr %0, ptr %7, align 8, !tbaa !42
  store i32 %1, ptr %8, align 4, !tbaa !52
  store i32 %2, ptr %9, align 4, !tbaa !52
  store ptr %3, ptr %10, align 8, !tbaa !65
  store i32 %4, ptr %11, align 4, !tbaa !52
  %12 = load ptr, ptr %7, align 8, !tbaa !42
  %13 = icmp eq ptr %12, null
  br i1 %13, label %14, label %15

14:                                               ; preds = %5
  call void @ERR_new()
  call void @ERR_set_debug(ptr noundef @.str, i32 noundef 282, ptr noundef @__func__.X509_REQ_add1_attr_by_NID)
  call void (i32, i32, ptr, ...) @ERR_set_error(i32 noundef 11, i32 noundef 786690, ptr noundef null)
  store i32 0, ptr %6, align 4
  br label %31

15:                                               ; preds = %5
  %16 = load ptr, ptr %7, align 8, !tbaa !42
  %17 = getelementptr inbounds nuw %struct.X509_req_st, ptr %16, i32 0, i32 0
  %18 = getelementptr inbounds nuw %struct.X509_req_info_st, ptr %17, i32 0, i32 4
  %19 = load i32, ptr %8, align 4, !tbaa !52
  %20 = load i32, ptr %9, align 4, !tbaa !52
  %21 = load ptr, ptr %10, align 8, !tbaa !65
  %22 = load i32, ptr %11, align 4, !tbaa !52
  %23 = call ptr @X509at_add1_attr_by_NID(ptr noundef %18, i32 noundef %19, i32 noundef %20, ptr noundef %21, i32 noundef %22)
  %24 = icmp ne ptr %23, null
  br i1 %24, label %26, label %25

25:                                               ; preds = %15
  store i32 0, ptr %6, align 4
  br label %31

26:                                               ; preds = %15
  %27 = load ptr, ptr %7, align 8, !tbaa !42
  %28 = getelementptr inbounds nuw %struct.X509_req_st, ptr %27, i32 0, i32 0
  %29 = getelementptr inbounds nuw %struct.X509_req_info_st, ptr %28, i32 0, i32 0
  %30 = getelementptr inbounds nuw %struct.ASN1_ENCODING_st, ptr %29, i32 0, i32 2
  store i32 1, ptr %30, align 8, !tbaa !67
  store i32 1, ptr %6, align 4
  br label %31

31:                                               ; preds = %26, %25, %14
  %32 = load i32, ptr %6, align 4
  ret i32 %32
}

; Function Attrs: inlinehint nounwind uwtable
define internal ptr @ossl_check_const_X509_EXTENSION_sk_type(ptr noundef %0) #3 {
  %2 = alloca ptr, align 8
  store ptr %0, ptr %2, align 8, !tbaa !57
  %3 = load ptr, ptr %2, align 8, !tbaa !57
  ret ptr %3
}

; Function Attrs: nounwind uwtable
define i32 @X509_REQ_add_extensions_nid(ptr noundef %0, ptr noundef %1, i32 noundef %2) #0 {
  %4 = alloca i32, align 4
  %5 = alloca ptr, align 8
  %6 = alloca ptr, align 8
  %7 = alloca i32, align 4
  %8 = alloca i32, align 4
  %9 = alloca i32, align 4
  %10 = alloca ptr, align 8
  %11 = alloca ptr, align 8
  %12 = alloca i32, align 4
  %13 = alloca i32, align 4
  %14 = alloca ptr, align 8
  store ptr %0, ptr %5, align 8, !tbaa !42
  store ptr %1, ptr %6, align 8, !tbaa !57
  store i32 %2, ptr %7, align 4, !tbaa !52
  call void @llvm.lifetime.start.p0(i64 4, ptr %8) #4
  call void @llvm.lifetime.start.p0(i64 4, ptr %9) #4
  store i32 0, ptr %9, align 4, !tbaa !52
  call void @llvm.lifetime.start.p0(i64 8, ptr %10) #4
  store ptr null, ptr %10, align 8, !tbaa !65
  call void @llvm.lifetime.start.p0(i64 8, ptr %11) #4
  store ptr null, ptr %11, align 8, !tbaa !57
  call void @llvm.lifetime.start.p0(i64 4, ptr %12) #4
  %15 = load ptr, ptr %6, align 8, !tbaa !57
  %16 = call ptr @ossl_check_const_X509_EXTENSION_sk_type(ptr noundef %15)
  %17 = call i32 @OPENSSL_sk_num(ptr noundef %16)
  %18 = icmp sle i32 %17, 0
  br i1 %18, label %19, label %20

19:                                               ; preds = %3
  store i32 1, ptr %4, align 4
  store i32 1, ptr %13, align 4
  br label %85

20:                                               ; preds = %3
  %21 = load ptr, ptr %5, align 8, !tbaa !42
  %22 = getelementptr inbounds nuw %struct.X509_req_st, ptr %21, i32 0, i32 0
  %23 = getelementptr inbounds nuw %struct.X509_req_info_st, ptr %22, i32 0, i32 4
  %24 = load ptr, ptr %23, align 8, !tbaa !66
  %25 = load i32, ptr %7, align 4, !tbaa !52
  %26 = call i32 @X509at_get_attr_by_NID(ptr noundef %24, i32 noundef %25, i32 noundef -1)
  store i32 %26, ptr %12, align 4, !tbaa !52
  %27 = load i32, ptr %12, align 4, !tbaa !52
  %28 = icmp ne i32 %27, -1
  br i1 %28, label %29, label %41

29:                                               ; preds = %20
  %30 = load ptr, ptr %5, align 8, !tbaa !42
  %31 = load i32, ptr %7, align 4, !tbaa !52
  %32 = call ptr @get_extensions_by_nid(ptr noundef %30, i32 noundef %31)
  store ptr %32, ptr %11, align 8, !tbaa !57
  %33 = icmp eq ptr %32, null
  br i1 %33, label %34, label %35

34:                                               ; preds = %29
  store i32 0, ptr %4, align 4
  store i32 1, ptr %13, align 4
  br label %85

35:                                               ; preds = %29
  %36 = load ptr, ptr %6, align 8, !tbaa !57
  %37 = call ptr @X509v3_add_extensions(ptr noundef %11, ptr noundef %36)
  %38 = icmp eq ptr %37, null
  br i1 %38, label %39, label %40

39:                                               ; preds = %35
  br label %80

40:                                               ; preds = %35
  br label %41

41:                                               ; preds = %40, %20
  %42 = load ptr, ptr %11, align 8, !tbaa !57
  %43 = icmp eq ptr %42, null
  br i1 %43, label %44, label %46

44:                                               ; preds = %41
  %45 = load ptr, ptr %6, align 8, !tbaa !57
  br label %48

46:                                               ; preds = %41
  %47 = load ptr, ptr %11, align 8, !tbaa !57
  br label %48

48:                                               ; preds = %46, %44
  %49 = phi ptr [ %45, %44 ], [ %47, %46 ]
  %50 = call ptr @X509_EXTENSIONS_it()
  %51 = call i32 @ASN1_item_i2d(ptr noundef %49, ptr noundef %10, ptr noundef %50)
  store i32 %51, ptr %8, align 4, !tbaa !52
  %52 = load i32, ptr %8, align 4, !tbaa !52
  %53 = icmp sle i32 %52, 0
  br i1 %53, label %54, label %55

54:                                               ; preds = %48
  br label %80

55:                                               ; preds = %48
  %56 = load ptr, ptr %11, align 8, !tbaa !57
  %57 = icmp ne ptr %56, null
  br i1 %57, label %58, label %73

58:                                               ; preds = %55
  call void @llvm.lifetime.start.p0(i64 8, ptr %14) #4
  %59 = load ptr, ptr %5, align 8, !tbaa !42
  %60 = getelementptr inbounds nuw %struct.X509_req_st, ptr %59, i32 0, i32 0
  %61 = getelementptr inbounds nuw %struct.X509_req_info_st, ptr %60, i32 0, i32 4
  %62 = load ptr, ptr %61, align 8, !tbaa !66
  %63 = load i32, ptr %12, align 4, !tbaa !52
  %64 = call ptr @X509at_delete_attr(ptr noundef %62, i32 noundef %63)
  store ptr %64, ptr %14, align 8, !tbaa !61
  %65 = load ptr, ptr %14, align 8, !tbaa !61
  %66 = icmp eq ptr %65, null
  br i1 %66, label %67, label %68

67:                                               ; preds = %58
  store i32 2, ptr %13, align 4
  br label %70

68:                                               ; preds = %58
  %69 = load ptr, ptr %14, align 8, !tbaa !61
  call void @X509_ATTRIBUTE_free(ptr noundef %69)
  store i32 0, ptr %13, align 4
  br label %70

70:                                               ; preds = %67, %68
  call void @llvm.lifetime.end.p0(i64 8, ptr %14) #4
  %71 = load i32, ptr %13, align 4
  switch i32 %71, label %85 [
    i32 0, label %72
    i32 2, label %80
  ]

72:                                               ; preds = %70
  br label %73

73:                                               ; preds = %72, %55
  %74 = load ptr, ptr %5, align 8, !tbaa !42
  %75 = load i32, ptr %7, align 4, !tbaa !52
  %76 = load ptr, ptr %10, align 8, !tbaa !65
  %77 = load i32, ptr %8, align 4, !tbaa !52
  %78 = call i32 @X509_REQ_add1_attr_by_NID(ptr noundef %74, i32 noundef %75, i32 noundef 16, ptr noundef %76, i32 noundef %77)
  store i32 %78, ptr %9, align 4, !tbaa !52
  %79 = load ptr, ptr %10, align 8, !tbaa !65
  call void @CRYPTO_free(ptr noundef %79, ptr noundef @.str, i32 noundef 200)
  br label %80

80:                                               ; preds = %73, %70, %54, %39
  %81 = load ptr, ptr %11, align 8, !tbaa !57
  %82 = call ptr @ossl_check_X509_EXTENSION_sk_type(ptr noundef %81)
  %83 = call ptr @ossl_check_X509_EXTENSION_freefunc_type(ptr noundef @X509_EXTENSION_free)
  call void @OPENSSL_sk_pop_free(ptr noundef %82, ptr noundef %83)
  %84 = load i32, ptr %9, align 4, !tbaa !52
  store i32 %84, ptr %4, align 4
  store i32 1, ptr %13, align 4
  br label %85

85:                                               ; preds = %80, %70, %34, %19
  call void @llvm.lifetime.end.p0(i64 4, ptr %12) #4
  call void @llvm.lifetime.end.p0(i64 8, ptr %11) #4
  call void @llvm.lifetime.end.p0(i64 8, ptr %10) #4
  call void @llvm.lifetime.end.p0(i64 4, ptr %9) #4
  call void @llvm.lifetime.end.p0(i64 4, ptr %8) #4
  %86 = load i32, ptr %4, align 4
  ret i32 %86
}