; Function Attrs: nounwind uwtable
define range(i32 0, 2) i32 @X509_REQ_add_extensions_nid(ptr noundef %0, ptr noundef %1, i32 noundef %2) local_unnamed_addr #0 {
  %4 = alloca ptr, align 8
  %5 = alloca ptr, align 8
  call void @llvm.lifetime.start.p0(i64 8, ptr nonnull %4) #8
  store ptr null, ptr %4, align 8, !tbaa !52
  call void @llvm.lifetime.start.p0(i64 8, ptr nonnull %5) #8
  store ptr null, ptr %5, align 8, !tbaa !53
  %6 = tail call i32 @OPENSSL_sk_num(ptr noundef %1) #8
  %7 = icmp slt i32 %6, 1
  br i1 %7, label %39, label %8

8:                                                ; preds = %3
  %9 = getelementptr inbounds nuw i8, ptr %0, i64 48
  %10 = load ptr, ptr %9, align 8, !tbaa !49
  %11 = tail call i32 @X509at_get_attr_by_NID(ptr noundef %10, i32 noundef %2, i32 noundef -1) #8
  %.not = icmp eq i32 %11, -1
  br i1 %.not, label %18, label %12

12:                                               ; preds = %8
  %13 = tail call fastcc ptr @get_extensions_by_nid(ptr noundef nonnull %0, i32 noundef %2)
  store ptr %13, ptr %5, align 8, !tbaa !53
  %14 = icmp eq ptr %13, null
  br i1 %14, label %39, label %15

15:                                               ; preds = %12
  %16 = call ptr @X509v3_add_extensions(ptr noundef nonnull %5, ptr noundef %1) #8
  %17 = icmp eq ptr %16, null
  br i1 %17, label %37, label %._crit_edge

._crit_edge:                                      ; preds = %15
  %.pre = load ptr, ptr %5, align 8, !tbaa !53
  br label %18

18:                                               ; preds = %._crit_edge, %8
  %19 = phi ptr [ %.pre, %._crit_edge ], [ null, %8 ]
  %20 = icmp eq ptr %19, null
  %21 = select i1 %20, ptr %1, ptr %19
  %22 = call ptr @X509_EXTENSIONS_it() #8
  %23 = call i32 @ASN1_item_i2d(ptr noundef %21, ptr noundef nonnull %4, ptr noundef %22) #8
  %24 = icmp slt i32 %23, 1
  br i1 %24, label %37, label %25

25:                                               ; preds = %18
  %26 = load ptr, ptr %5, align 8, !tbaa !53
  %.not22 = icmp eq ptr %26, null
  br i1 %.not22, label %31, label %27

27:                                               ; preds = %25
  %28 = load ptr, ptr %9, align 8, !tbaa !49
  %29 = call ptr @X509at_delete_attr(ptr noundef %28, i32 noundef %11) #8
  %30 = icmp eq ptr %29, null
  br i1 %30, label %37, label %.thread

.thread:                                          ; preds = %27
  call void @X509_ATTRIBUTE_free(ptr noundef nonnull %29) #8
  br label %31

31:                                               ; preds = %25, %.thread
  %32 = load ptr, ptr %4, align 8, !tbaa !52
  %33 = call ptr @X509at_add1_attr_by_NID(ptr noundef nonnull %9, i32 noundef %2, i32 noundef 16, ptr noundef %32, i32 noundef %23) #8
  %.not.i = icmp eq ptr %33, null
  br i1 %.not.i, label %X509_REQ_add1_attr_by_NID.exit, label %34

34:                                               ; preds = %31
  %35 = getelementptr inbounds nuw i8, ptr %0, i64 16
  store i32 1, ptr %35, align 8, !tbaa !54
  br label %X509_REQ_add1_attr_by_NID.exit

X509_REQ_add1_attr_by_NID.exit:                   ; preds = %31, %34
  %.0.i = phi i32 [ 1, %34 ], [ 0, %31 ]
  %36 = load ptr, ptr %4, align 8, !tbaa !52
  call void @CRYPTO_free(ptr noundef %36, ptr noundef nonnull @.str, i32 noundef 200) #8
  br label %37

37:                                               ; preds = %27, %18, %15, %X509_REQ_add1_attr_by_NID.exit
  %.019 = phi i32 [ 0, %15 ], [ 0, %18 ], [ %.0.i, %X509_REQ_add1_attr_by_NID.exit ], [ 0, %27 ]
  %38 = load ptr, ptr %5, align 8, !tbaa !53
  call void @OPENSSL_sk_pop_free(ptr noundef %38, ptr noundef nonnull @X509_EXTENSION_free) #8
  br label %39

39:                                               ; preds = %12, %3, %37
  %.0 = phi i32 [ %.019, %37 ], [ 1, %3 ], [ 0, %12 ]
  call void @llvm.lifetime.end.p0(i64 8, ptr nonnull %5) #8
  call void @llvm.lifetime.end.p0(i64 8, ptr nonnull %4) #8
  ret i32 %.0
}